; ModuleID = 'source-C-CXX/24/1160.cpp'
source_filename = "source-C-CXX/24/1160.cpp"
target datalayout = "e-m:e-p270:32:32-p271:32:32-p272:64:64-i64:64-f80:128-n8:16:32:64-S128"
target triple = "x86_64-pc-linux-gnu"

%"class.std::ios_base::Init" = type { i8 }
%"class.std::basic_ostream" = type { i32 (...)**, %"class.std::basic_ios" }
%"class.std::basic_ios" = type { %"class.std::ios_base", %"class.std::basic_ostream"*, i8, i8, %"class.std::basic_streambuf"*, %"class.std::ctype"*, %"class.std::num_put"*, %"class.std::num_get"* }
%"class.std::ios_base" = type { i32 (...)**, i64, i64, i32, i32, i32, %"struct.std::ios_base::_Callback_list"*, %"struct.std::ios_base::_Words", [8 x %"struct.std::ios_base::_Words"], i32, %"struct.std::ios_base::_Words"*, %"class.std::locale" }
%"struct.std::ios_base::_Callback_list" = type { %"struct.std::ios_base::_Callback_list"*, void (i32, %"class.std::ios_base"*, i32)*, i32, i32 }
%"struct.std::ios_base::_Words" = type { i8*, i64 }
%"class.std::locale" = type { %"class.std::locale::_Impl"* }
%"class.std::locale::_Impl" = type { i32, %"class.std::locale::facet"**, i64, %"class.std::locale::facet"**, i8** }
%"class.std::locale::facet" = type <{ i32 (...)**, i32, [4 x i8] }>
%"class.std::basic_streambuf" = type { i32 (...)**, i8*, i8*, i8*, i8*, i8*, i8*, %"class.std::locale" }
%"class.std::ctype" = type <{ %"class.std::locale::facet.base", [4 x i8], %struct.__locale_struct*, i8, [7 x i8], i32*, i32*, i16*, i8, [256 x i8], [256 x i8], i8, [6 x i8] }>
%"class.std::locale::facet.base" = type <{ i32 (...)**, i32 }>
%struct.__locale_struct = type { [13 x %struct.__locale_data*], i16*, i32*, i32*, [13 x i8*] }
%struct.__locale_data = type opaque
%"class.std::num_put" = type { %"class.std::locale::facet.base", [4 x i8] }
%"class.std::num_get" = type { %"class.std::locale::facet.base", [4 x i8] }
%"class.std::basic_istream" = type { i32 (...)**, i64, %"class.std::basic_ios" }

@_ZStL8__ioinit = internal global %"class.std::ios_base::Init" zeroinitializer, align 1
@__dso_handle = external hidden global i8
@a = dso_local local_unnamed_addr global [1010 x i32] zeroinitializer, align 16
@_ZSt4cout = external global %"class.std::basic_ostream", align 8
@_ZSt3cin = external global %"class.std::basic_istream", align 8
@llvm.global_ctors = appending global [1 x { i32, void ()*, i8* }] [{ i32, void ()*, i8* } { i32 65535, void ()* @_GLOBAL__sub_I_1160.cpp, i8* null }]

declare void @_ZNSt8ios_base4InitC1Ev(%"class.std::ios_base::Init"* nonnull align 1 dereferenceable(1)) unnamed_addr #0

; Function Attrs: nounwind
declare void @_ZNSt8ios_base4InitD1Ev(%"class.std::ios_base::Init"* nonnull align 1 dereferenceable(1)) unnamed_addr #1

; Function Attrs: nofree nounwind
declare i32 @__cxa_atexit(void (i8*)*, i8*, i8*) local_unnamed_addr #2

; Function Attrs: mustprogress sspstrong uwtable
define dso_local void @_Z1fi(i32 %0) local_unnamed_addr #3 {
  br label %2

2:                                                ; preds = %99, %1
  %3 = phi i32 [ %0, %1 ], [ %100, %99 ]
  br label %4

4:                                                ; preds = %4, %2
  %5 = phi i64 [ %9, %4 ], [ 1000, %2 ]
  %6 = getelementptr inbounds [1010 x i32], [1010 x i32]* @a, i64 0, i64 %5
  %7 = load i32, i32* %6, align 4, !tbaa !5
  %8 = icmp eq i32 %7, 0
  %9 = add i64 %5, -1
  br i1 %8, label %4, label %10, !llvm.loop !9

10:                                               ; preds = %4
  %11 = icmp eq i32 %3, 0
  %12 = trunc i64 %5 to i32
  br i1 %11, label %23, label %13

13:                                               ; preds = %10
  %14 = icmp slt i32 %12, 0
  br i1 %14, label %99, label %15

15:                                               ; preds = %13
  %16 = add i64 %5, 2
  %17 = and i64 %16, 4294967295
  %18 = add nsw i64 %17, -1
  %19 = and i64 %18, 1
  %20 = icmp eq i64 %17, 2
  br i1 %20, label %87, label %21

21:                                               ; preds = %15
  %22 = and i64 %18, -2
  br label %63

23:                                               ; preds = %10
  %24 = trunc i64 %5 to i32
  %25 = icmp sgt i32 %24, 0
  br i1 %25, label %26, label %35

26:                                               ; preds = %23
  %27 = and i64 %5, 4294967295
  br label %28

28:                                               ; preds = %26, %28
  %29 = phi i64 [ %27, %26 ], [ %34, %28 ]
  %30 = getelementptr inbounds [1010 x i32], [1010 x i32]* @a, i64 0, i64 %29
  %31 = load i32, i32* %30, align 4, !tbaa !5
  %32 = tail call nonnull align 8 dereferenceable(8) %"class.std::basic_ostream"* @_ZNSolsEi(%"class.std::basic_ostream"* nonnull align 8 dereferenceable(8) @_ZSt4cout, i32 %31)
  %33 = icmp sgt i64 %29, 1
  %34 = add nsw i64 %29, -1
  br i1 %33, label %28, label %35, !llvm.loop !11

35:                                               ; preds = %28, %23
  %36 = load i8*, i8** bitcast (%"class.std::basic_ostream"* @_ZSt4cout to i8**), align 8, !tbaa !12
  %37 = getelementptr i8, i8* %36, i64 -24
  %38 = bitcast i8* %37 to i64*
  %39 = load i64, i64* %38, align 8
  %40 = add nsw i64 %39, 240
  %41 = getelementptr inbounds i8, i8* bitcast (%"class.std::basic_ostream"* @_ZSt4cout to i8*), i64 %40
  %42 = bitcast i8* %41 to %"class.std::ctype"**
  %43 = load %"class.std::ctype"*, %"class.std::ctype"** %42, align 8, !tbaa !14
  %44 = icmp eq %"class.std::ctype"* %43, null
  br i1 %44, label %45, label %46

45:                                               ; preds = %35
  tail call void @_ZSt16__throw_bad_castv() #8
  unreachable

46:                                               ; preds = %35
  %47 = getelementptr inbounds %"class.std::ctype", %"class.std::ctype"* %43, i64 0, i32 8
  %48 = load i8, i8* %47, align 8, !tbaa !18
  %49 = icmp eq i8 %48, 0
  br i1 %49, label %53, label %50

50:                                               ; preds = %46
  %51 = getelementptr inbounds %"class.std::ctype", %"class.std::ctype"* %43, i64 0, i32 9, i64 10
  %52 = load i8, i8* %51, align 1, !tbaa !20
  br label %59

53:                                               ; preds = %46
  tail call void @_ZNKSt5ctypeIcE13_M_widen_initEv(%"class.std::ctype"* nonnull align 8 dereferenceable(570) %43)
  %54 = bitcast %"class.std::ctype"* %43 to i8 (%"class.std::ctype"*, i8)***
  %55 = load i8 (%"class.std::ctype"*, i8)**, i8 (%"class.std::ctype"*, i8)*** %54, align 8, !tbaa !12
  %56 = getelementptr inbounds i8 (%"class.std::ctype"*, i8)*, i8 (%"class.std::ctype"*, i8)** %55, i64 6
  %57 = load i8 (%"class.std::ctype"*, i8)*, i8 (%"class.std::ctype"*, i8)** %56, align 8
  %58 = tail call signext i8 %57(%"class.std::ctype"* nonnull align 8 dereferenceable(570) %43, i8 signext 10)
  br label %59

59:                                               ; preds = %50, %53
  %60 = phi i8 [ %52, %50 ], [ %58, %53 ]
  %61 = tail call nonnull align 8 dereferenceable(8) %"class.std::basic_ostream"* @_ZNSo3putEc(%"class.std::basic_ostream"* nonnull align 8 dereferenceable(8) @_ZSt4cout, i8 signext %60)
  %62 = tail call nonnull align 8 dereferenceable(8) %"class.std::basic_ostream"* @_ZNSo5flushEv(%"class.std::basic_ostream"* nonnull align 8 dereferenceable(8) %61)
  ret void

63:                                               ; preds = %63, %21
  %64 = phi i64 [ 1, %21 ], [ %84, %63 ]
  %65 = phi i32 [ 0, %21 ], [ %83, %63 ]
  %66 = phi i64 [ %22, %21 ], [ %85, %63 ]
  %67 = getelementptr inbounds [1010 x i32], [1010 x i32]* @a, i64 0, i64 %64
  %68 = load i32, i32* %67, align 4, !tbaa !5
  %69 = shl nsw i32 %68, 1
  %70 = or i32 %69, %65
  %71 = icmp sgt i32 %70, 9
  %72 = add nsw i32 %70, -10
  %73 = select i1 %71, i32 %72, i32 %70
  %74 = zext i1 %71 to i32
  store i32 %73, i32* %67, align 4, !tbaa !5
  %75 = add nuw nsw i64 %64, 1
  %76 = getelementptr inbounds [1010 x i32], [1010 x i32]* @a, i64 0, i64 %75
  %77 = load i32, i32* %76, align 4, !tbaa !5
  %78 = shl nsw i32 %77, 1
  %79 = or i32 %78, %74
  %80 = icmp sgt i32 %79, 9
  %81 = add nsw i32 %79, -10
  %82 = select i1 %80, i32 %81, i32 %79
  %83 = zext i1 %80 to i32
  store i32 %82, i32* %76, align 4, !tbaa !5
  %84 = add nuw nsw i64 %64, 2
  %85 = add i64 %66, -2
  %86 = icmp eq i64 %85, 0
  br i1 %86, label %87, label %63, !llvm.loop !21

87:                                               ; preds = %63, %15
  %88 = phi i64 [ 1, %15 ], [ %84, %63 ]
  %89 = phi i32 [ 0, %15 ], [ %83, %63 ]
  %90 = icmp eq i64 %19, 0
  br i1 %90, label %99, label %91

91:                                               ; preds = %87
  %92 = getelementptr inbounds [1010 x i32], [1010 x i32]* @a, i64 0, i64 %88
  %93 = load i32, i32* %92, align 4, !tbaa !5
  %94 = shl nsw i32 %93, 1
  %95 = or i32 %94, %89
  %96 = icmp sgt i32 %95, 9
  %97 = add nsw i32 %95, -10
  %98 = select i1 %96, i32 %97, i32 %95
  store i32 %98, i32* %92, align 4, !tbaa !5
  br label %99

99:                                               ; preds = %91, %87, %13
  %100 = add nsw i32 %3, -1
  br label %2
}

; Function Attrs: argmemonly mustprogress nofree nosync nounwind willreturn
declare void @llvm.lifetime.start.p0i8(i64 immarg, i8* nocapture) #4

declare nonnull align 8 dereferenceable(8) %"class.std::basic_ostream"* @_ZNSolsEi(%"class.std::basic_ostream"* nonnull align 8 dereferenceable(8), i32) local_unnamed_addr #0

; Function Attrs: argmemonly mustprogress nofree nosync nounwind willreturn
declare void @llvm.lifetime.end.p0i8(i64 immarg, i8* nocapture) #4

; Function Attrs: mustprogress norecurse sspstrong uwtable
define dso_local i32 @main() local_unnamed_addr #5 {
  %1 = alloca i32, align 4
  %2 = bitcast i32* %1 to i8*
  call void @llvm.lifetime.start.p0i8(i64 4, i8* nonnull %2) #9
  %3 = call nonnull align 8 dereferenceable(16) %"class.std::basic_istream"* @_ZNSirsERi(%"class.std::basic_istream"* nonnull align 8 dereferenceable(16) @_ZSt3cin, i32* nonnull align 4 dereferenceable(4) %1)
  store i32 1, i32* getelementptr inbounds ([1010 x i32], [1010 x i32]* @a, i64 0, i64 1), align 4, !tbaa !5
  %4 = load i32, i32* %1, align 4, !tbaa !5
  call void @_Z1fi(i32 %4)
  call void @llvm.lifetime.end.p0i8(i64 4, i8* nonnull %2) #9
  ret i32 0
}

declare nonnull align 8 dereferenceable(16) %"class.std::basic_istream"* @_ZNSirsERi(%"class.std::basic_istream"* nonnull align 8 dereferenceable(16), i32* nonnull align 4 dereferenceable(4)) local_unnamed_addr #0

declare nonnull align 8 dereferenceable(8) %"class.std::basic_ostream"* @_ZNSo3putEc(%"class.std::basic_ostream"* nonnull align 8 dereferenceable(8), i8 signext) local_unnamed_addr #0

declare nonnull align 8 dereferenceable(8) %"class.std::basic_ostream"* @_ZNSo5flushEv(%"class.std::basic_ostream"* nonnull align 8 dereferenceable(8)) local_unnamed_addr #0

; Function Attrs: noreturn
declare void @_ZSt16__throw_bad_castv() local_unnamed_addr #6

declare void @_ZNKSt5ctypeIcE13_M_widen_initEv(%"class.std::ctype"* nonnull align 8 dereferenceable(570)) local_unnamed_addr #0

; Function Attrs: sspstrong uwtable
define internal void @_GLOBAL__sub_I_1160.cpp() #7 section ".text.startup" {
  tail call void @_ZNSt8ios_base4InitC1Ev(%"class.std::ios_base::Init"* nonnull align 1 dereferenceable(1) @_ZStL8__ioinit)
  %1 = tail call i32 @__cxa_atexit(void (i8*)* bitcast (void (%"class.std::ios_base::Init"*)* @_ZNSt8ios_base4InitD1Ev to void (i8*)*), i8* getelementptr inbounds (%"class.std::ios_base::Init", %"class.std::ios_base::Init"* @_ZStL8__ioinit, i64 0, i32 0), i8* nonnull @__dso_handle) #9
  ret void
}


!llvm.module.flags = !{!0, !1, !2, !3}
!llvm.ident = !{!4}

!0 = !{i32 1, !"wchar_size", i32 4}
!1 = !{i32 7, !"PIC Level", i32 2}
!2 = !{i32 7, !"PIE Level", i32 2}
!3 = !{i32 7, !"uwtable", i32 1}
!4 = !{!"clang version 13.0.0"}
!5 = !{!6, !6, i64 0}
!6 = !{!"int", !7, i64 0}
!7 = !{!"omnipotent char", !8, i64 0}
!8 = !{!"Simple C++ TBAA"}
!9 = distinct !{!9, !10}
!10 = !{!"llvm.loop.mustprogress"}
!11 = distinct !{!11, !10}
!12 = !{!13, !13, i64 0}
!13 = !{!"vtable pointer", !8, i64 0}
!14 = !{!15, !16, i64 240}
!15 = !{!"_ZTSSt9basic_iosIcSt11char_traitsIcEE", !16, i64 216, !7, i64 224, !17, i64 225, !16, i64 232, !16, i64 240, !16, i64 248, !16, i64 256}
!16 = !{!"any pointer", !7, i64 0}
!17 = !{!"bool", !7, i64 0}
!18 = !{!19, !7, i64 56}
!19 = !{!"_ZTSSt5ctypeIcE", !16, i64 16, !17, i64 24, !16, i64 32, !16, i64 40, !16, i64 48, !7, i64 56, !7, i64 57, !7, i64 313, !7, i64 569}
!20 = !{!7, !7, i64 0}
!21 = distinct !{!21, !10}
